; Function Attrs: nounwind uwtable
define noundef ptr @yy_create_buffer(ptr noundef %0, i32 noundef %1, ptr nocapture noundef %2) local_unnamed_addr #0 {
  %4 = tail call noalias noundef dereferenceable_or_null(64) ptr @malloc(i64 noundef 64) #34
  %.not = icmp eq ptr %4, null
  br i1 %.not, label %5, label %10

5:                                                ; preds = %3
  %6 = load ptr, ptr %2, align 8
  %7 = getelementptr inbounds i8, ptr %6, i64 16
  %8 = load i32, ptr %7, align 8
  tail call void @yara_yyerror(ptr noundef nonnull %2, ptr noundef %6, ptr noundef nonnull @.str.18)
  store i32 %8, ptr %7, align 8
  %9 = getelementptr inbounds i8, ptr %6, i64 24
  tail call void @longjmp(ptr noundef nonnull %9, i32 noundef 1) #31
  unreachable

10:                                               ; preds = %3
  %11 = getelementptr inbounds i8, ptr %4, i64 24
  store i32 %1, ptr %11, align 8
  %12 = add nsw i32 %1, 2
  %13 = sext i32 %12 to i64
  %14 = tail call noalias noundef ptr @malloc(i64 noundef %13) #34
  %15 = getelementptr inbounds i8, ptr %4, i64 8
  store ptr %14, ptr %15, align 8
  %.not14 = icmp eq ptr %14, null
  br i1 %.not14, label %16, label %21

16:                                               ; preds = %10
  %17 = load ptr, ptr %2, align 8
  %18 = getelementptr inbounds i8, ptr %17, i64 16
  %19 = load i32, ptr %18, align 8
  tail call void @yara_yyerror(ptr noundef nonnull %2, ptr noundef %17, ptr noundef nonnull @.str.18)
  store i32 %19, ptr %18, align 8
  %20 = getelementptr inbounds i8, ptr %17, i64 24
  tail call void @longjmp(ptr noundef nonnull %20, i32 noundef 1) #31
  unreachable

21:                                               ; preds = %10
  %22 = getelementptr inbounds i8, ptr %4, i64 32
  store i32 1, ptr %22, align 8
  tail call fastcc void @yy_init_buffer(ptr noundef nonnull %4, ptr noundef %0, ptr noundef %2)
  ret ptr %4
}